target datalayout = "e-m:e-p270:32:32-p271:32:32-p272:64:64-i64:64-i128:128-f80:128-n8:16:32:64-S128"
target triple = "x86_64-pc-linux-gnu"

; Function Attrs: inlinehint nounwind uwtable
define internal void @select_sort(ptr noundef %0, i32 noundef %1, ptr noundef %2) #2 {
  %4 = alloca ptr, align 8
  %5 = alloca i32, align 4
  %6 = alloca ptr, align 8
  %7 = alloca i32, align 4
  %8 = alloca i32, align 4
  %9 = alloca i32, align 4
  %10 = alloca ptr, align 8
  store ptr %0, ptr %4, align 8, !tbaa !198
  store i32 %1, ptr %5, align 4, !tbaa !10
  store ptr %2, ptr %6, align 8, !tbaa !198
  call void @llvm.lifetime.start.p0(i64 4, ptr %7) #9
  call void @llvm.lifetime.start.p0(i64 4, ptr %8) #9
  call void @llvm.lifetime.start.p0(i64 4, ptr %9) #9
  call void @llvm.lifetime.start.p0(i64 8, ptr %10) #9
  store i32 0, ptr %7, align 4, !tbaa !10
  br label %11

11:                                               ; preds = %64, %3
  %12 = load i32, ptr %7, align 4, !tbaa !10
  %13 = load i32, ptr %5, align 4, !tbaa !10
  %14 = sub i32 %13, 1
  %15 = icmp ult i32 %12, %14
  br i1 %15, label %16, label %67

16:                                               ; preds = %11
  %17 = load i32, ptr %7, align 4, !tbaa !10
  store i32 %17, ptr %9, align 4, !tbaa !10
  %18 = load i32, ptr %7, align 4, !tbaa !10
  %19 = add i32 %18, 1
  store i32 %19, ptr %8, align 4, !tbaa !10
  br label %20

20:                                               ; preds = %41, %16
  %21 = load i32, ptr %8, align 4, !tbaa !10
  %22 = load i32, ptr %5, align 4, !tbaa !10
  %23 = icmp ult i32 %21, %22
  br i1 %23, label %24, label %44

24:                                               ; preds = %20
  %25 = load ptr, ptr %6, align 8, !tbaa !198
  %26 = load ptr, ptr %4, align 8, !tbaa !198
  %27 = load i32, ptr %8, align 4, !tbaa !10
  %28 = zext i32 %27 to i64
  %29 = getelementptr inbounds nuw ptr, ptr %26, i64 %28
  %30 = load ptr, ptr %29, align 8, !tbaa !198
  %31 = load ptr, ptr %4, align 8, !tbaa !198
  %32 = load i32, ptr %9, align 4, !tbaa !10
  %33 = zext i32 %32 to i64
  %34 = getelementptr inbounds nuw ptr, ptr %31, i64 %33
  %35 = load ptr, ptr %34, align 8, !tbaa !198
  %36 = call i32 %25(ptr noundef %30, ptr noundef %35)
  %37 = icmp ne i32 %36, 0
  br i1 %37, label %38, label %40

38:                                               ; preds = %24
  %39 = load i32, ptr %8, align 4, !tbaa !10
  store i32 %39, ptr %9, align 4, !tbaa !10
  br label %40

40:                                               ; preds = %38, %24
  br label %41

41:                                               ; preds = %40
  %42 = load i32, ptr %8, align 4, !tbaa !10
  %43 = add i32 %42, 1
  store i32 %43, ptr %8, align 4, !tbaa !10
  br label %20, !llvm.loop !208

44:                                               ; preds = %20
  %45 = load ptr, ptr %4, align 8, !tbaa !198
  %46 = load i32, ptr %7, align 4, !tbaa !10
  %47 = zext i32 %46 to i64
  %48 = getelementptr inbounds nuw ptr, ptr %45, i64 %47
  %49 = load ptr, ptr %48, align 8, !tbaa !198
  store ptr %49, ptr %10, align 8, !tbaa !198
  %50 = load ptr, ptr %4, align 8, !tbaa !198
  %51 = load i32, ptr %9, align 4, !tbaa !10
  %52 = zext i32 %51 to i64
  %53 = getelementptr inbounds nuw ptr, ptr %50, i64 %52
  %54 = load ptr, ptr %53, align 8, !tbaa !198
  %55 = load ptr, ptr %4, align 8, !tbaa !198
  %56 = load i32, ptr %7, align 4, !tbaa !10
  %57 = zext i32 %56 to i64
  %58 = getelementptr inbounds nuw ptr, ptr %55, i64 %57
  store ptr %54, ptr %58, align 8, !tbaa !198
  %59 = load ptr, ptr %10, align 8, !tbaa !198
  %60 = load ptr, ptr %4, align 8, !tbaa !198
  %61 = load i32, ptr %9, align 4, !tbaa !10
  %62 = zext i32 %61 to i64
  %63 = getelementptr inbounds nuw ptr, ptr %60, i64 %62
  store ptr %59, ptr %63, align 8, !tbaa !198
  br label %64

64:                                               ; preds = %44
  %65 = load i32, ptr %7, align 4, !tbaa !10
  %66 = add i32 %65, 1
  store i32 %66, ptr %7, align 4, !tbaa !10
  br label %11, !llvm.loop !209

67:                                               ; preds = %11
  call void @llvm.lifetime.end.p0(i64 8, ptr %10) #9
  call void @llvm.lifetime.end.p0(i64 4, ptr %9) #9
  call void @llvm.lifetime.end.p0(i64 4, ptr %8) #9
  call void @llvm.lifetime.end.p0(i64 4, ptr %7) #9
  ret void
}

; Function Attrs: nounwind uwtable
define internal void @satoko_sort(ptr noundef %0, i32 noundef %1, ptr noundef %2) #0 {
  %4 = alloca ptr, align 8
  %5 = alloca i32, align 4
  %6 = alloca ptr, align 8
  %7 = alloca ptr, align 8
  %8 = alloca ptr, align 8
  %9 = alloca i32, align 4
  %10 = alloca i32, align 4
  store ptr %0, ptr %4, align 8, !tbaa !198
  store i32 %1, ptr %5, align 4, !tbaa !10
  store ptr %2, ptr %6, align 8, !tbaa !198
  %11 = load i32, ptr %5, align 4, !tbaa !10
  %12 = icmp ule i32 %11, 15
  br i1 %12, label %13, label %17

13:                                               ; preds = %3
  %14 = load ptr, ptr %4, align 8, !tbaa !198
  %15 = load i32, ptr %5, align 4, !tbaa !10
  %16 = load ptr, ptr %6, align 8, !tbaa !198
  call void @select_sort(ptr noundef %14, i32 noundef %15, ptr noundef %16)
  br label %90

17:                                               ; preds = %3
  call void @llvm.lifetime.start.p0(i64 8, ptr %7) #9
  %18 = load ptr, ptr %4, align 8, !tbaa !198
  %19 = load i32, ptr %5, align 4, !tbaa !10
  %20 = udiv i32 %19, 2
  %21 = zext i32 %20 to i64
  %22 = getelementptr inbounds nuw ptr, ptr %18, i64 %21
  %23 = load ptr, ptr %22, align 8, !tbaa !198
  store ptr %23, ptr %7, align 8, !tbaa !198
  call void @llvm.lifetime.start.p0(i64 8, ptr %8) #9
  call void @llvm.lifetime.start.p0(i64 4, ptr %9) #9
  %24 = load i32, ptr %5, align 4, !tbaa !10
  store i32 %24, ptr %9, align 4, !tbaa !10
  call void @llvm.lifetime.start.p0(i64 4, ptr %10) #9
  store i32 -1, ptr %10, align 4, !tbaa !10
  br label %25

25:                                               ; preds = %58, %17
  br label %26

26:                                               ; preds = %29, %25
  %27 = load i32, ptr %10, align 4, !tbaa !10
  %28 = add nsw i32 %27, 1
  store i32 %28, ptr %10, align 4, !tbaa !10
  br label %29

29:                                               ; preds = %26
  %30 = load ptr, ptr %6, align 8, !tbaa !198
  %31 = load ptr, ptr %4, align 8, !tbaa !198
  %32 = load i32, ptr %10, align 4, !tbaa !10
  %33 = sext i32 %32 to i64
  %34 = getelementptr inbounds ptr, ptr %31, i64 %33
  %35 = load ptr, ptr %34, align 8, !tbaa !198
  %36 = load ptr, ptr %7, align 8, !tbaa !198
  %37 = call i32 %30(ptr noundef %35, ptr noundef %36)
  %38 = icmp ne i32 %37, 0
  br i1 %38, label %26, label %39, !llvm.loop !199

39:                                               ; preds = %29
  br label %40

40:                                               ; preds = %43, %39
  %41 = load i32, ptr %9, align 4, !tbaa !10
  %42 = add i32 %41, -1
  store i32 %42, ptr %9, align 4, !tbaa !10
  br label %43

43:                                               ; preds = %40
  %44 = load ptr, ptr %6, align 8, !tbaa !198
  %45 = load ptr, ptr %7, align 8, !tbaa !198
  %46 = load ptr, ptr %4, align 8, !tbaa !198
  %47 = load i32, ptr %9, align 4, !tbaa !10
  %48 = zext i32 %47 to i64
  %49 = getelementptr inbounds nuw ptr, ptr %46, i64 %48
  %50 = load ptr, ptr %49, align 8, !tbaa !198
  %51 = call i32 %44(ptr noundef %45, ptr noundef %50)
  %52 = icmp ne i32 %51, 0
  br i1 %52, label %40, label %53, !llvm.loop !200

53:                                               ; preds = %43
  %54 = load i32, ptr %10, align 4, !tbaa !10
  %55 = load i32, ptr %9, align 4, !tbaa !10
  %56 = icmp uge i32 %54, %55
  br i1 %56, label %57, label %58

57:                                               ; preds = %53
  br label %78

58:                                               ; preds = %53
  %59 = load ptr, ptr %4, align 8, !tbaa !198
  %60 = load i32, ptr %10, align 4, !tbaa !10
  %61 = sext i32 %60 to i64
  %62 = getelementptr inbounds ptr, ptr %59, i64 %61
  %63 = load ptr, ptr %62, align 8, !tbaa !198
  store ptr %63, ptr %8, align 8, !tbaa !198
  %64 = load ptr, ptr %4, align 8, !tbaa !198
  %65 = load i32, ptr %9, align 4, !tbaa !10
  %66 = zext i32 %65 to i64
  %67 = getelementptr inbounds nuw ptr, ptr %64, i64 %66
  %68 = load ptr, ptr %67, align 8, !tbaa !198
  %69 = load ptr, ptr %4, align 8, !tbaa !198
  %70 = load i32, ptr %10, align 4, !tbaa !10
  %71 = sext i32 %70 to i64
  %72 = getelementptr inbounds ptr, ptr %69, i64 %71
  store ptr %68, ptr %72, align 8, !tbaa !198
  %73 = load ptr, ptr %8, align 8, !tbaa !198
  %74 = load ptr, ptr %4, align 8, !tbaa !198
  %75 = load i32, ptr %9, align 4, !tbaa !10
  %76 = zext i32 %75 to i64
  %77 = getelementptr inbounds nuw ptr, ptr %74, i64 %76
  store ptr %73, ptr %77, align 8, !tbaa !198
  br label %25

78:                                               ; preds = %57
  %79 = load ptr, ptr %4, align 8, !tbaa !198
  %80 = load i32, ptr %10, align 4, !tbaa !10
  %81 = load ptr, ptr %6, align 8, !tbaa !198
  call void @satoko_sort(ptr noundef %79, i32 noundef %80, ptr noundef %81)
  %82 = load ptr, ptr %4, align 8, !tbaa !198
  %83 = load i32, ptr %10, align 4, !tbaa !10
  %84 = sext i32 %83 to i64
  %85 = getelementptr inbounds ptr, ptr %82, i64 %84
  %86 = load i32, ptr %5, align 4, !tbaa !10
  %87 = load i32, ptr %10, align 4, !tbaa !10
  %88 = sub i32 %86, %87
  %89 = load ptr, ptr %6, align 8, !tbaa !198
  call void @satoko_sort(ptr noundef %85, i32 noundef %88, ptr noundef %89)
  call void @llvm.lifetime.end.p0(i64 4, ptr %10) #9
  call void @llvm.lifetime.end.p0(i64 4, ptr %9) #9
  call void @llvm.lifetime.end.p0(i64 8, ptr %8) #9
  call void @llvm.lifetime.end.p0(i64 8, ptr %7) #9
  br label %90

90:                                               ; preds = %78, %13
  ret void
}