; Function Attrs: nofree nosync nounwind memory(read, argmem: readwrite, inaccessiblemem: none) uwtable
define internal fastcc void @satoko_sort(ptr noundef captures(none) %0, i32 noundef %1) unnamed_addr #9 {
  %3 = icmp ult i32 %1, 16
  br i1 %3, label %tailrecurse._crit_edge, label %.lr.ph

tailrecurse._crit_edge:                           ; preds = %tailrecurse, %2
  %.tr.lcssa = phi ptr [ %0, %2 ], [ %.us-phi26, %tailrecurse ]
  %.tr3.lcssa = phi i32 [ %1, %2 ], [ %165, %tailrecurse ]
  %4 = add nsw i32 %.tr3.lcssa, -1
  %.not.i = icmp eq i32 %4, 0
  br i1 %.not.i, label %select_sort.exit, label %.lr.ph14.preheader.i

.lr.ph14.preheader.i:                             ; preds = %tailrecurse._crit_edge
  %5 = zext nneg i32 %.tr3.lcssa to i64
  %wide.trip.count.i = zext i32 %4 to i64
  br label %.lr.ph14.i

.lr.ph14.i:                                       ; preds = %._crit_edge.i, %.lr.ph14.preheader.i
  %indvars.iv19.i = phi i64 [ 0, %.lr.ph14.preheader.i ], [ %indvars.iv.next20.i, %._crit_edge.i ]
  %indvars.iv.i = phi i64 [ 1, %.lr.ph14.preheader.i ], [ %indvars.iv.next.i, %._crit_edge.i ]
  %indvars.iv.next20.i = add nuw nsw i64 %indvars.iv19.i, 1
  %6 = icmp samesign ult i64 %indvars.iv.next20.i, %5
  %7 = trunc nuw i64 %indvars.iv19.i to i32
  br i1 %6, label %.lr.ph.i, label %._crit_edge.i

.lr.ph.i:                                         ; preds = %.lr.ph14.i, %clause_compare.exit.thread5.i
  %indvars.iv16.i = phi i64 [ %indvars.iv.next17.i, %clause_compare.exit.thread5.i ], [ %indvars.iv.i, %.lr.ph14.i ]
  %.02211.i = phi i32 [ %44, %clause_compare.exit.thread5.i ], [ %7, %.lr.ph14.i ]
  %8 = getelementptr inbounds nuw ptr, ptr %.tr.lcssa, i64 %indvars.iv16.i
  %9 = load ptr, ptr %8, align 8, !tbaa !188
  %10 = zext i32 %.02211.i to i64
  %11 = getelementptr inbounds nuw ptr, ptr %.tr.lcssa, i64 %10
  %12 = load ptr, ptr %11, align 8, !tbaa !188
  %13 = getelementptr inbounds nuw i8, ptr %9, i64 4
  %14 = load i32, ptr %13, align 4, !tbaa !30
  %15 = icmp ugt i32 %14, 2
  %16 = trunc nuw i64 %indvars.iv16.i to i32
  br i1 %15, label %17, label %21

17:                                               ; preds = %.lr.ph.i
  %18 = getelementptr inbounds nuw i8, ptr %12, i64 4
  %19 = load i32, ptr %18, align 4, !tbaa !30
  %20 = icmp eq i32 %19, 2
  br i1 %20, label %clause_compare.exit.thread5.i, label %.thread19.i.i

21:                                               ; preds = %.lr.ph.i
  %22 = icmp eq i32 %14, 2
  br i1 %22, label %23, label %.thread19.i.i

23:                                               ; preds = %21
  %24 = getelementptr inbounds nuw i8, ptr %12, i64 4
  %25 = load i32, ptr %24, align 4, !tbaa !30
  %or.cond.i.i = icmp ugt i32 %25, 1
  br i1 %or.cond.i.i, label %clause_compare.exit.thread.i, label %.thread19.i.i

.thread19.i.i:                                    ; preds = %23, %21, %17
  %26 = load i32, ptr %9, align 4
  %27 = lshr i32 %26, 4
  %28 = load i32, ptr %12, align 4
  %29 = lshr i32 %28, 4
  %30 = icmp samesign ugt i32 %27, %29
  br i1 %30, label %clause_compare.exit.thread5.i, label %31

31:                                               ; preds = %.thread19.i.i
  %32 = icmp samesign ult i32 %27, %29
  br i1 %32, label %clause_compare.exit.thread.i, label %clause_compare.exit.i

clause_compare.exit.i:                            ; preds = %31
  %33 = getelementptr inbounds nuw i8, ptr %9, i64 8
  %34 = zext i32 %14 to i64
  %35 = getelementptr inbounds nuw [0 x %union.anon], ptr %33, i64 0, i64 %34
  %36 = load i32, ptr %35, align 4, !tbaa !40
  %37 = getelementptr inbounds nuw i8, ptr %12, i64 8
  %38 = getelementptr inbounds nuw i8, ptr %12, i64 4
  %39 = load i32, ptr %38, align 4, !tbaa !30
  %40 = zext i32 %39 to i64
  %41 = getelementptr inbounds nuw [0 x %union.anon], ptr %37, i64 0, i64 %40
  %42 = load i32, ptr %41, align 4, !tbaa !40
  %43 = icmp uge i32 %36, %42
  %cond.fr.i = freeze i1 %43
  br i1 %cond.fr.i, label %clause_compare.exit.thread.i, label %clause_compare.exit.thread5.i

clause_compare.exit.thread.i:                     ; preds = %clause_compare.exit.i, %31, %23
  br label %clause_compare.exit.thread5.i

clause_compare.exit.thread5.i:                    ; preds = %clause_compare.exit.thread.i, %clause_compare.exit.i, %.thread19.i.i, %17
  %44 = phi i32 [ %.02211.i, %clause_compare.exit.thread.i ], [ %16, %clause_compare.exit.i ], [ %16, %17 ], [ %16, %.thread19.i.i ]
  %indvars.iv.next17.i = add nuw nsw i64 %indvars.iv16.i, 1
  %lftr.wideiv = trunc i64 %indvars.iv.next17.i to i32
  %exitcond = icmp eq i32 %.tr3.lcssa, %lftr.wideiv
  br i1 %exitcond, label %._crit_edge.i, label %.lr.ph.i, !llvm.loop !189

._crit_edge.i:                                    ; preds = %clause_compare.exit.thread5.i, %.lr.ph14.i
  %.022.lcssa.i = phi i32 [ %7, %.lr.ph14.i ], [ %44, %clause_compare.exit.thread5.i ]
  %45 = getelementptr inbounds nuw ptr, ptr %.tr.lcssa, i64 %indvars.iv19.i
  %46 = load ptr, ptr %45, align 8, !tbaa !188
  %47 = zext i32 %.022.lcssa.i to i64
  %48 = getelementptr inbounds nuw ptr, ptr %.tr.lcssa, i64 %47
  %49 = load ptr, ptr %48, align 8, !tbaa !188
  store ptr %49, ptr %45, align 8, !tbaa !188
  store ptr %46, ptr %48, align 8, !tbaa !188
  %indvars.iv.next.i = add nuw nsw i64 %indvars.iv.i, 1
  %exitcond22.not.i = icmp eq i64 %indvars.iv.next20.i, %wide.trip.count.i
  br i1 %exitcond22.not.i, label %select_sort.exit, label %.lr.ph14.i, !llvm.loop !190

.lr.ph:                                           ; preds = %2, %tailrecurse
  %.tr328 = phi i32 [ %165, %tailrecurse ], [ %1, %2 ]
  %.tr27 = phi ptr [ %.us-phi26, %tailrecurse ], [ %0, %2 ]
  %50 = lshr i32 %.tr328, 1
  %51 = zext nneg i32 %50 to i64
  %52 = getelementptr inbounds nuw ptr, ptr %.tr27, i64 %51
  %53 = load ptr, ptr %52, align 8, !tbaa !188
  %54 = getelementptr inbounds nuw i8, ptr %53, i64 4
  %55 = getelementptr inbounds nuw i8, ptr %53, i64 8
  %56 = load i32, ptr %54, align 4, !tbaa !30
  %57 = icmp ugt i32 %56, 2
  %58 = icmp eq i32 %56, 2
  %59 = zext i32 %56 to i64
  %60 = getelementptr inbounds nuw [0 x %union.anon], ptr %55, i64 0, i64 %59
  br i1 %57, label %.split.us, label %.split

.split.us:                                        ; preds = %.lr.ph, %87
  %61 = phi i32 [ %89, %87 ], [ %56, %.lr.ph ]
  %62 = phi i32 [ %90, %87 ], [ %56, %.lr.ph ]
  %.035.us = phi i32 [ %93, %87 ], [ %.tr328, %.lr.ph ]
  %.0.us = phi i64 [ %indvars.iv.next59, %87 ], [ -1, %.lr.ph ]
  %sext61 = shl i64 %.0.us, 32
  %63 = ashr exact i64 %sext61, 32
  br label %.backedge6.us.outer

.backedge6.us.outer:                              ; preds = %.backedge6.us.outer.backedge, %.split.us
  %.ph = phi i32 [ %61, %.split.us ], [ %.ph97.be, %.backedge6.us.outer.backedge ]
  %.ph97 = phi i32 [ %62, %.split.us ], [ %.ph97.be, %.backedge6.us.outer.backedge ]
  %indvars.iv58.ph = phi i64 [ %63, %.split.us ], [ %indvars.iv.next59, %.backedge6.us.outer.backedge ]
  %64 = icmp eq i32 %.ph, 2
  br label %.backedge6.us

.backedge6.us:                                    ; preds = %.backedge6.us.outer, %.thread19.i.us
  %65 = phi i32 [ %74, %.thread19.i.us ], [ %.ph97, %.backedge6.us.outer ]
  %indvars.iv58 = phi i64 [ %indvars.iv.next59, %.thread19.i.us ], [ %indvars.iv58.ph, %.backedge6.us.outer ]
  %indvars.iv.next59 = add nsw i64 %indvars.iv58, 1
  %66 = getelementptr inbounds ptr, ptr %.tr27, i64 %indvars.iv.next59
  %67 = load ptr, ptr %66, align 8, !tbaa !188
  %68 = getelementptr inbounds nuw i8, ptr %67, i64 4
  %69 = load i32, ptr %68, align 4, !tbaa !30
  %70 = icmp ugt i32 %69, 2
  br i1 %70, label %73, label %71

71:                                               ; preds = %.backedge6.us
  %72 = icmp eq i32 %69, 2
  %or.cond.i.us = icmp ugt i32 %65, 1
  %or.cond = select i1 %72, i1 %or.cond.i.us, i1 false
  br i1 %or.cond, label %.preheader.us, label %.thread19.i.us

73:                                               ; preds = %.backedge6.us
  br i1 %64, label %.backedge6.us.outer.backedge, label %.thread19.i.us, !llvm.loop !191

.thread19.i.us:                                   ; preds = %73, %71
  %74 = phi i32 [ %.ph, %73 ], [ %65, %71 ]
  %75 = load i32, ptr %67, align 4
  %76 = lshr i32 %75, 4
  %77 = load i32, ptr %53, align 4
  %78 = lshr i32 %77, 4
  %79 = icmp samesign ugt i32 %76, %78
  br i1 %79, label %.backedge6.us, label %80, !llvm.loop !191

80:                                               ; preds = %.thread19.i.us
  %81 = icmp samesign ult i32 %76, %78
  br i1 %81, label %.preheader.us, label %clause_compare.exit.us

clause_compare.exit.us:                           ; preds = %80
  %82 = getelementptr inbounds nuw i8, ptr %67, i64 8
  %83 = zext i32 %69 to i64
  %84 = getelementptr inbounds nuw [0 x %union.anon], ptr %82, i64 0, i64 %83
  %85 = load i32, ptr %84, align 4, !tbaa !40
  %86 = load i32, ptr %60, align 4, !tbaa !40
  %.not31 = icmp ult i32 %85, %86
  br i1 %.not31, label %.backedge6.us.outer.backedge, label %.preheader.us

.backedge6.us.outer.backedge:                     ; preds = %73, %clause_compare.exit.us
  %.ph97.be = phi i32 [ %56, %clause_compare.exit.us ], [ 2, %73 ]
  br label %.backedge6.us.outer, !llvm.loop !191

87:                                               ; preds = %clause_compare.exit47.thread.split.us.us
  %88 = getelementptr inbounds nuw ptr, ptr %.tr27, i64 %94
  store ptr %96, ptr %91, align 8, !tbaa !188
  store ptr %67, ptr %88, align 8, !tbaa !188
  br label %.split.us

.preheader.us:                                    ; preds = %clause_compare.exit.us, %80, %71
  %89 = phi i32 [ %.ph, %71 ], [ %56, %clause_compare.exit.us ], [ %.ph, %80 ]
  %90 = phi i32 [ %65, %71 ], [ %56, %clause_compare.exit.us ], [ %74, %80 ]
  %91 = getelementptr inbounds ptr, ptr %.tr27, i64 %indvars.iv.next59
  %92 = trunc nsw i64 %indvars.iv.next59 to i32
  br label %.backedge.us.us

.backedge.us.us:                                  ; preds = %.backedge.us.us.backedge, %.preheader.us
  %.136.us.us = phi i32 [ %.035.us, %.preheader.us ], [ %93, %.backedge.us.us.backedge ]
  %93 = add i32 %.136.us.us, -1
  %94 = zext i32 %93 to i64
  %95 = getelementptr inbounds nuw ptr, ptr %.tr27, i64 %94
  %96 = load ptr, ptr %95, align 8, !tbaa !188
  %97 = getelementptr inbounds nuw i8, ptr %96, i64 4
  %98 = load i32, ptr %97, align 4, !tbaa !30
  %99 = icmp eq i32 %98, 2
  br i1 %99, label %.backedge.us.us.backedge, label %.thread19.i44.us.us

.backedge.us.us.backedge:                         ; preds = %.backedge.us.us, %.thread19.i44.us.us, %clause_compare.exit47.us.us
  br label %.backedge.us.us, !llvm.loop !192

.thread19.i44.us.us:                              ; preds = %.backedge.us.us
  %100 = load i32, ptr %53, align 4
  %101 = lshr i32 %100, 4
  %102 = load i32, ptr %96, align 4
  %103 = lshr i32 %102, 4
  %104 = icmp samesign ugt i32 %101, %103
  br i1 %104, label %.backedge.us.us.backedge, label %105

105:                                              ; preds = %.thread19.i44.us.us
  %106 = icmp samesign ult i32 %101, %103
  br i1 %106, label %clause_compare.exit47.thread.split.us.us, label %clause_compare.exit47.us.us

clause_compare.exit47.us.us:                      ; preds = %105
  %107 = load i32, ptr %60, align 4, !tbaa !40
  %108 = getelementptr inbounds nuw i8, ptr %96, i64 8
  %109 = zext i32 %98 to i64
  %110 = getelementptr inbounds nuw [0 x %union.anon], ptr %108, i64 0, i64 %109
  %111 = load i32, ptr %110, align 4, !tbaa !40
  %.not32 = icmp ult i32 %107, %111
  br i1 %.not32, label %.backedge.us.us.backedge, label %clause_compare.exit47.thread.split.us.us

clause_compare.exit47.thread.split.us.us:         ; preds = %clause_compare.exit47.us.us, %105
  %.not43.us = icmp ugt i32 %93, %92
  br i1 %.not43.us, label %87, label %tailrecurse

.split:                                           ; preds = %.lr.ph, %163
  %112 = phi i32 [ %138, %163 ], [ %56, %.lr.ph ]
  %113 = phi i32 [ %139, %163 ], [ %56, %.lr.ph ]
  %.035 = phi i32 [ %142, %163 ], [ %.tr328, %.lr.ph ]
  %.0 = phi i64 [ %indvars.iv.next, %163 ], [ -1, %.lr.ph ]
  %sext = shl i64 %.0, 32
  %114 = ashr exact i64 %sext, 32
  br label %.backedge6.outer

.backedge6.outer:                                 ; preds = %.backedge6.outer.backedge, %.split
  %.ph101 = phi i32 [ %112, %.split ], [ %.ph102.be, %.backedge6.outer.backedge ]
  %.ph102 = phi i32 [ %113, %.split ], [ %.ph102.be, %.backedge6.outer.backedge ]
  %indvars.iv.ph = phi i64 [ %114, %.split ], [ %indvars.iv.next, %.backedge6.outer.backedge ]
  %115 = icmp eq i32 %.ph101, 2
  br label %.backedge6

.backedge6:                                       ; preds = %.backedge6.outer, %.thread19.i
  %116 = phi i32 [ %125, %.thread19.i ], [ %.ph102, %.backedge6.outer ]
  %indvars.iv = phi i64 [ %indvars.iv.next, %.thread19.i ], [ %indvars.iv.ph, %.backedge6.outer ]
  %indvars.iv.next = add nsw i64 %indvars.iv, 1
  %117 = getelementptr inbounds ptr, ptr %.tr27, i64 %indvars.iv.next
  %118 = load ptr, ptr %117, align 8, !tbaa !188
  %119 = getelementptr inbounds nuw i8, ptr %118, i64 4
  %120 = load i32, ptr %119, align 4, !tbaa !30
  %121 = icmp ugt i32 %120, 2
  br i1 %121, label %122, label %123

122:                                              ; preds = %.backedge6
  br i1 %115, label %.backedge6.outer.backedge, label %.thread19.i, !llvm.loop !191

123:                                              ; preds = %.backedge6
  %124 = icmp eq i32 %120, 2
  %or.cond.i = icmp ugt i32 %116, 1
  %or.cond62 = select i1 %124, i1 %or.cond.i, i1 false
  br i1 %or.cond62, label %.preheader, label %.thread19.i

.thread19.i:                                      ; preds = %123, %122
  %125 = phi i32 [ %116, %123 ], [ %.ph101, %122 ]
  %126 = load i32, ptr %118, align 4
  %127 = lshr i32 %126, 4
  %128 = load i32, ptr %53, align 4
  %129 = lshr i32 %128, 4
  %130 = icmp samesign ugt i32 %127, %129
  br i1 %130, label %.backedge6, label %131, !llvm.loop !191

131:                                              ; preds = %.thread19.i
  %132 = icmp samesign ult i32 %127, %129
  br i1 %132, label %.preheader, label %clause_compare.exit

clause_compare.exit:                              ; preds = %131
  %133 = getelementptr inbounds nuw i8, ptr %118, i64 8
  %134 = zext i32 %120 to i64
  %135 = getelementptr inbounds nuw [0 x %union.anon], ptr %133, i64 0, i64 %134
  %136 = load i32, ptr %135, align 4, !tbaa !40
  %137 = load i32, ptr %60, align 4, !tbaa !40
  %.not = icmp ult i32 %136, %137
  br i1 %.not, label %.backedge6.outer.backedge, label %.preheader

.backedge6.outer.backedge:                        ; preds = %122, %clause_compare.exit
  %.ph102.be = phi i32 [ %56, %clause_compare.exit ], [ 2, %122 ]
  br label %.backedge6.outer, !llvm.loop !191

.preheader:                                       ; preds = %clause_compare.exit, %131, %123
  %138 = phi i32 [ %.ph101, %123 ], [ %56, %clause_compare.exit ], [ %.ph101, %131 ]
  %139 = phi i32 [ %116, %123 ], [ %56, %clause_compare.exit ], [ %125, %131 ]
  %140 = getelementptr inbounds ptr, ptr %.tr27, i64 %indvars.iv.next
  %141 = trunc nsw i64 %indvars.iv.next to i32
  br label %.backedge

.backedge:                                        ; preds = %.backedge.backedge, %.preheader
  %.136 = phi i32 [ %.035, %.preheader ], [ %142, %.backedge.backedge ]
  %142 = add i32 %.136, -1
  %143 = zext i32 %142 to i64
  %144 = getelementptr inbounds nuw ptr, ptr %.tr27, i64 %143
  %145 = load ptr, ptr %144, align 8, !tbaa !188
  br i1 %58, label %146, label %.thread19.i44

146:                                              ; preds = %.backedge
  %147 = getelementptr inbounds nuw i8, ptr %145, i64 4
  %148 = load i32, ptr %147, align 4, !tbaa !30
  %or.cond.i46 = icmp ugt i32 %148, 1
  br i1 %or.cond.i46, label %clause_compare.exit47.thread.split, label %.thread19.i44

.thread19.i44:                                    ; preds = %146, %.backedge
  %149 = load i32, ptr %53, align 4
  %150 = lshr i32 %149, 4
  %151 = load i32, ptr %145, align 4
  %152 = lshr i32 %151, 4
  %153 = icmp samesign ugt i32 %150, %152
  br i1 %153, label %.backedge.backedge, label %154

.backedge.backedge:                               ; preds = %.thread19.i44, %clause_compare.exit47
  br label %.backedge, !llvm.loop !192

154:                                              ; preds = %.thread19.i44
  %155 = icmp samesign ult i32 %150, %152
  br i1 %155, label %clause_compare.exit47.thread.split, label %clause_compare.exit47

clause_compare.exit47:                            ; preds = %154
  %156 = load i32, ptr %60, align 4, !tbaa !40
  %157 = getelementptr inbounds nuw i8, ptr %145, i64 8
  %158 = getelementptr inbounds nuw i8, ptr %145, i64 4
  %159 = load i32, ptr %158, align 4, !tbaa !30
  %160 = zext i32 %159 to i64
  %161 = getelementptr inbounds nuw [0 x %union.anon], ptr %157, i64 0, i64 %160
  %162 = load i32, ptr %161, align 4, !tbaa !40
  %.not30 = icmp ult i32 %156, %162
  br i1 %.not30, label %.backedge.backedge, label %clause_compare.exit47.thread.split

clause_compare.exit47.thread.split:               ; preds = %154, %146, %clause_compare.exit47
  %.not43 = icmp ugt i32 %142, %141
  br i1 %.not43, label %163, label %tailrecurse

163:                                              ; preds = %clause_compare.exit47.thread.split
  %164 = getelementptr inbounds nuw ptr, ptr %.tr27, i64 %143
  store ptr %145, ptr %140, align 8, !tbaa !188
  store ptr %118, ptr %164, align 8, !tbaa !188
  br label %.split

tailrecurse:                                      ; preds = %clause_compare.exit47.thread.split, %clause_compare.exit47.thread.split.us.us
  %.us-phi25 = phi i32 [ %92, %clause_compare.exit47.thread.split.us.us ], [ %141, %clause_compare.exit47.thread.split ]
  %.us-phi26 = phi ptr [ %91, %clause_compare.exit47.thread.split.us.us ], [ %140, %clause_compare.exit47.thread.split ]
  tail call fastcc void @satoko_sort(ptr noundef nonnull %.tr27, i32 noundef %.us-phi25)
  %165 = sub i32 %.tr328, %.us-phi25
  %166 = icmp ult i32 %165, 16
  br i1 %166, label %tailrecurse._crit_edge, label %.lr.ph

select_sort.exit:                                 ; preds = %._crit_edge.i, %tailrecurse._crit_edge
  ret void
}